target datalayout = "e-m:e-p270:32:32-p271:32:32-p272:64:64-i64:64-i128:128-f80:128-n8:16:32:64-S128"
target triple = "x86_64-pc-linux-gnu"

@user_encap_handle = internal global ptr null, align 8
@.str.22 = private unnamed_addr constant [9 x i8] c"DLT User\00", align 1
@.str.23 = private unnamed_addr constant [9 x i8] c"DLT_USER\00", align 1
@.str.24 = private unnamed_addr constant [9 x i8] c"user_dlt\00", align 1
@proto_user_encap = internal global i32 0, align 4
@.str.25 = private unnamed_addr constant [16 x i8] c"User DLTs Table\00", align 1
@.str.26 = private unnamed_addr constant [10 x i8] c"user_dlts\00", align 1
@encaps = internal global ptr null, align 8
@num_encaps = internal global i32 0, align 4
@.str.27 = private unnamed_addr constant [18 x i8] c"ChUserDLTsSection\00", align 1
@encaps_uat = internal global ptr null, align 8
@.str.28 = private unnamed_addr constant [13 x i8] c"encaps_table\00", align 1
@.str.29 = private unnamed_addr constant [21 x i8] c"Encapsulations Table\00", align 1
@.str.30 = private unnamed_addr constant [84 x i8] c"A table that enumerates the various protocols to be used against a certain user DLT\00", align 1
@exported_pdu_tap = internal global i32 -1, align 4

; Function Attrs: null_pointer_is_valid sspstrong uwtable
define hidden void @proto_register_user_encap() #0 {
  %1 = alloca ptr, align 8
  %2 = alloca ptr, align 8
  call void @llvm.lifetime.start.p0(i64 8, ptr %1) #4
  call void @llvm.lifetime.start.p0(i64 8, ptr %2) #4
  %3 = call i32 @proto_register_protocol(ptr noundef @.str.22, ptr noundef @.str.23, ptr noundef @.str.24)
  store i32 %3, ptr @proto_user_encap, align 4
  %4 = load i32, ptr @proto_user_encap, align 4
  %5 = call ptr @expert_register_protocol(i32 noundef %4)
  store ptr %5, ptr %2, align 8
  %6 = load ptr, ptr %2, align 8
  call void @expert_register_field_array(ptr noundef %6, ptr noundef @proto_register_user_encap.ei, i32 noundef 1)
  %7 = load i32, ptr @proto_user_encap, align 4
  %8 = call ptr @prefs_register_protocol(i32 noundef %7, ptr noundef null)
  store ptr %8, ptr %1, align 8
  %9 = call ptr @uat_new(ptr noundef @.str.25, i64 noundef 64, ptr noundef @.str.26, i1 noundef zeroext true, ptr noundef @encaps, ptr noundef @num_encaps, i32 noundef 1, ptr noundef @.str.27, ptr noundef @user_copy_cb, ptr noundef null, ptr noundef @user_free_cb, ptr noundef null, ptr noundef null, ptr noundef @proto_register_user_encap.user_flds)
  store ptr %9, ptr @encaps_uat, align 8
  %10 = load ptr, ptr %1, align 8
  %11 = load ptr, ptr @encaps_uat, align 8
  call void @prefs_register_uat_preference(ptr noundef %10, ptr noundef @.str.28, ptr noundef @.str.29, ptr noundef @.str.30, ptr noundef %11)
  %12 = load i32, ptr @proto_user_encap, align 4
  %13 = call ptr @register_dissector(ptr noundef @.str.24, ptr noundef @dissect_user, i32 noundef %12)
  store ptr %13, ptr @user_encap_handle, align 8
  %14 = call i32 @register_export_pdu_tap(ptr noundef @.str.22)
  store i32 %14, ptr @exported_pdu_tap, align 4
  call void @llvm.lifetime.end.p0(i64 8, ptr %2) #4
  call void @llvm.lifetime.end.p0(i64 8, ptr %1) #4
  ret void
}