; Function Attrs: null_pointer_is_valid sspstrong uwtable
define hidden void @proto_register_user_encap() local_unnamed_addr #0 {
  %1 = tail call i32 @proto_register_protocol(ptr noundef nonnull @.str.22, ptr noundef nonnull @.str.23, ptr noundef nonnull @.str.24)
  store i32 %1, ptr @proto_user_encap, align 4
  %2 = tail call ptr @expert_register_protocol(i32 noundef %1)
  tail call void @expert_register_field_array(ptr noundef %2, ptr noundef nonnull @proto_register_user_encap.ei, i32 noundef 1)
  %3 = load i32, ptr @proto_user_encap, align 4
  %4 = tail call ptr @prefs_register_protocol(i32 noundef %3, ptr noundef null)
  %5 = tail call ptr @uat_new(ptr noundef nonnull @.str.25, i64 noundef 64, ptr noundef nonnull @.str.26, i1 noundef zeroext true, ptr noundef nonnull @encaps, ptr noundef nonnull @num_encaps, i32 noundef 1, ptr noundef nonnull @.str.27, ptr noundef nonnull @user_copy_cb, ptr noundef null, ptr noundef nonnull @user_free_cb, ptr noundef null, ptr noundef null, ptr noundef nonnull @proto_register_user_encap.user_flds)
  store ptr %5, ptr @encaps_uat, align 8
  tail call void @prefs_register_uat_preference(ptr noundef %4, ptr noundef nonnull @.str.28, ptr noundef nonnull @.str.29, ptr noundef nonnull @.str.30, ptr noundef %5)
  %6 = load i32, ptr @proto_user_encap, align 4
  %7 = tail call ptr @register_dissector(ptr noundef nonnull @.str.24, ptr noundef nonnull @dissect_user, i32 noundef %6)
  store ptr %7, ptr @user_encap_handle, align 8
  %8 = tail call i32 @register_export_pdu_tap(ptr noundef nonnull @.str.22)
  store i32 %8, ptr @exported_pdu_tap, align 4
  ret void
}